target datalayout = "e-m:e-p270:32:32-p271:32:32-p272:64:64-i64:64-i128:128-f80:128-n8:16:32:64-S128"
target triple = "x86_64-unknown-linux-gnu"

%class.params_ref = type { ptr }
%class.propagate_values = type { %class.dependent_expr_simplifier, %class.th_rewriter, %"struct.propagate_values::stats", i32, %class.shared_occs, %class.expr_substitution }
%class.dependent_expr_simplifier = type { ptr, ptr, ptr, ptr }
%class.th_rewriter = type { ptr, %class.params_ref }
%"struct.propagate_values::stats" = type { i32 }
%class.shared_occs = type { ptr, i8, i8, i8, %class.ref_vector, %class.svector }
%class.ref_vector = type { %class.ref_vector_core }
%class.ref_vector_core = type { %class.ref_manager_wrapper, %class.ptr_vector }
%class.ref_manager_wrapper = type { ptr }
%class.ptr_vector = type { %class.vector }
%class.vector = type { ptr }
%class.svector = type { %class.vector.0 }
%class.vector.0 = type { ptr }
%class.expr_substitution = type <{ ptr, %class.obj_map, %class.scoped_ptr, %class.scoped_ptr.1, i8, [7 x i8] }>
%class.obj_map = type { %class.core_hashtable }
%class.core_hashtable = type <{ ptr, i32, i32, i32, [4 x i8] }>
%class.scoped_ptr = type { ptr }
%class.scoped_ptr.1 = type { ptr }
%class.dependent_expr_state = type { ptr, i32, i8, i32, i32, i32, %class.ast_mark, %class.ref_vector.37, %class.trail_stack }
%class.ast_mark = type { ptr, %class.obj_mark, %class.obj_mark.36 }
%class.obj_mark = type { %struct.default_t2uint, %class.bit_vector }
%struct.default_t2uint = type { i8 }
%class.bit_vector = type { i32, i32, ptr }
%class.obj_mark.36 = type { %"struct.ast_mark::decl2uint", %class.bit_vector }
%"struct.ast_mark::decl2uint" = type { i8 }
%class.ref_vector.37 = type { %class.ref_vector_core.38 }
%class.ref_vector_core.38 = type { %class.ref_manager_wrapper.39, %class.ptr_vector.40 }
%class.ref_manager_wrapper.39 = type { ptr }
%class.ptr_vector.40 = type { %class.vector.41 }
%class.vector.41 = type { ptr }
%class.trail_stack = type { %class.ptr_vector.42, %class.svector.27, %class.region }
%class.ptr_vector.42 = type { %class.vector.43 }
%class.vector.43 = type { ptr }
%class.svector.27 = type { %class.vector.28 }
%class.vector.28 = type { ptr }
%class.region = type { ptr, ptr, ptr, ptr, ptr }
%class.dependent_expr = type { ptr, ptr, ptr, ptr }
%class.anon = type { ptr }
%class.anon.49 = type { ptr, ptr }
%class.shared_occs_mark = type { %class.ptr_buffer }
%class.ptr_buffer = type { %class.buffer }
%class.buffer = type { ptr, i32, i32, [16 x %"union.std::aligned_storage<8, 8>::type"] }
%"union.std::aligned_storage<8, 8>::type" = type { [8 x i8] }

; Function Attrs: mustprogress nounwind uwtable
define linkonce_odr hidden void @_ZN6bufferIP3astLb0ELj16EEC2Ev(ptr noundef nonnull align 8 dereferenceable(144) %this) unnamed_addr #5 comdat align 2 {
entry:
  %this.addr = alloca ptr, align 8
  store ptr %this, ptr %this.addr, align 8
  %this1 = load ptr, ptr %this.addr, align 8
  %m_buffer = getelementptr inbounds %class.buffer, ptr %this1, i32 0, i32 0
  %m_initial_buffer = getelementptr inbounds %class.buffer, ptr %this1, i32 0, i32 3
  %arraydecay = getelementptr inbounds [16 x %"union.std::aligned_storage<8, 8>::type"], ptr %m_initial_buffer, i64 0, i64 0
  store ptr %arraydecay, ptr %m_buffer, align 8
  %m_pos = getelementptr inbounds %class.buffer, ptr %this1, i32 0, i32 1
  store i32 0, ptr %m_pos, align 8
  %m_capacity = getelementptr inbounds %class.buffer, ptr %this1, i32 0, i32 2
  store i32 16, ptr %m_capacity, align 4
  ret void
}

; Function Attrs: mustprogress nounwind uwtable
define linkonce_odr hidden void @_ZN10ptr_bufferI3astLj16EEC2Ev(ptr noundef nonnull align 8 dereferenceable(144) %this) unnamed_addr #5 comdat align 2 {
entry:
  %this.addr = alloca ptr, align 8
  store ptr %this, ptr %this.addr, align 8
  %this1 = load ptr, ptr %this.addr, align 8
  call void @_ZN6bufferIP3astLb0ELj16EEC2Ev(ptr noundef nonnull align 8 dereferenceable(144) %this1) #3
  ret void
}

; Function Attrs: mustprogress nounwind uwtable
define linkonce_odr hidden noundef i32 @_ZNK20dependent_expr_state5qheadEv(ptr noundef nonnull align 8 dereferenceable(160) %this) #5 comdat align 2 {
entry:
  %this.addr = alloca ptr, align 8
  store ptr %this, ptr %this.addr, align 8
  %this1 = load ptr, ptr %this.addr, align 8
  %m_qhead = getelementptr inbounds %class.dependent_expr_state, ptr %this1, i32 0, i32 1
  %0 = load i32, ptr %m_qhead, align 8
  ret i32 %0
}

; Function Attrs: mustprogress nounwind uwtable
define linkonce_odr hidden noundef ptr @_ZNK14dependent_expr3fmlEv(ptr noundef nonnull align 8 dereferenceable(32) %this) #5 comdat align 2 {
entry:
  %this.addr = alloca ptr, align 8
  store ptr %this, ptr %this.addr, align 8
  %this1 = load ptr, ptr %this.addr, align 8
  %m_fml = getelementptr inbounds %class.dependent_expr, ptr %this1, i32 0, i32 1
  %0 = load ptr, ptr %m_fml, align 8
  ret ptr %0
}

; Function Attrs: mustprogress uwtable
define linkonce_odr hidden noundef i32 @_ZNK25dependent_expr_simplifier5qtailEv(ptr noundef nonnull align 8 dereferenceable(32) %this) #4 comdat align 2 {
entry:
  %this.addr = alloca ptr, align 8
  store ptr %this, ptr %this.addr, align 8
  %this1 = load ptr, ptr %this.addr, align 8
  %m_fmls = getelementptr inbounds %class.dependent_expr_simplifier, ptr %this1, i32 0, i32 2
  %0 = load ptr, ptr %m_fmls, align 8
  %vtable = load ptr, ptr %0, align 8
  %vfn = getelementptr inbounds ptr, ptr %vtable, i64 2
  %1 = load ptr, ptr %vfn, align 8
  %call = call noundef i32 %1(ptr noundef nonnull align 8 dereferenceable(160) %0)
  ret i32 %call
}

; Function Attrs: mustprogress nounwind uwtable
define linkonce_odr hidden void @_ZN16shared_occs_markC2Ev(ptr noundef nonnull align 8 dereferenceable(144) %this) unnamed_addr #5 comdat align 2 {
entry:
  %this.addr = alloca ptr, align 8
  store ptr %this, ptr %this.addr, align 8
  %this1 = load ptr, ptr %this.addr, align 8
  %m_to_unmark = getelementptr inbounds %class.shared_occs_mark, ptr %this1, i32 0, i32 0
  call void @_ZN10ptr_bufferI3astLj16EEC2Ev(ptr noundef nonnull align 8 dereferenceable(144) %m_to_unmark) #3
  ret void
}

; Function Attrs: mustprogress uwtable
define linkonce_odr hidden noundef i32 @_ZNK25dependent_expr_simplifier5qheadEv(ptr noundef nonnull align 8 dereferenceable(32) %this) #4 comdat align 2 {
entry:
  %this.addr = alloca ptr, align 8
  store ptr %this, ptr %this.addr, align 8
  %this1 = load ptr, ptr %this.addr, align 8
  %m_fmls = getelementptr inbounds %class.dependent_expr_simplifier, ptr %this1, i32 0, i32 2
  %0 = load ptr, ptr %m_fmls, align 8
  %call = call noundef i32 @_ZNK20dependent_expr_state5qheadEv(ptr noundef nonnull align 8 dereferenceable(160) %0)
  ret i32 %call
}

; Function Attrs: mustprogress uwtable
define internal void @"_ZZN16propagate_values6reduceEvENK3$_1clEv"(ptr noundef nonnull align 8 dereferenceable(8) %this) #4 align 2 personality ptr @__gxx_personality_v0 {
entry:
  %this.addr = alloca ptr, align 8
  %visited = alloca %class.shared_occs_mark, align 8
  %exn.slot = alloca ptr, align 8
  %ehselector.slot = alloca i32, align 4
  %i = alloca i32, align 4
  store ptr %this, ptr %this.addr, align 8
  %this1 = load ptr, ptr %this.addr, align 8
  %0 = getelementptr inbounds %class.anon, ptr %this1, i32 0, i32 0
  %1 = load ptr, ptr %0, align 8
  call void @_ZN16shared_occs_markC2Ev(ptr noundef nonnull align 8 dereferenceable(144) %visited) #3
  %m_shared = getelementptr inbounds %class.propagate_values, ptr %1, i32 0, i32 4
  invoke void @_ZN11shared_occs5resetEv(ptr noundef nonnull align 8 dereferenceable(40) %m_shared)
          to label %invoke.cont unwind label %lpad

invoke.cont:                                      ; preds = %entry
  store i32 0, ptr %i, align 4
  br label %for.cond

for.cond:                                         ; preds = %for.inc, %invoke.cont
  %2 = load i32, ptr %i, align 4
  %call = invoke noundef i32 @_ZNK25dependent_expr_simplifier5qtailEv(ptr noundef nonnull align 8 dereferenceable(32) %1)
          to label %invoke.cont2 unwind label %lpad

invoke.cont2:                                     ; preds = %for.cond
  %cmp = icmp ult i32 %2, %call
  br i1 %cmp, label %for.body, label %for.end

for.body:                                         ; preds = %invoke.cont2
  %m_shared3 = getelementptr inbounds %class.propagate_values, ptr %1, i32 0, i32 4
  %m_fmls = getelementptr inbounds %class.dependent_expr_simplifier, ptr %1, i32 0, i32 2
  %3 = load ptr, ptr %m_fmls, align 8
  %4 = load i32, ptr %i, align 4
  %vtable = load ptr, ptr %3, align 8
  %vfn = getelementptr inbounds ptr, ptr %vtable, i64 3
  %5 = load ptr, ptr %vfn, align 8
  %call5 = invoke noundef nonnull align 8 dereferenceable(32) ptr %5(ptr noundef nonnull align 8 dereferenceable(160) %3, i32 noundef %4)
          to label %invoke.cont4 unwind label %lpad

invoke.cont4:                                     ; preds = %for.body
  %call7 = invoke noundef ptr @_ZNK14dependent_expr3fmlEv(ptr noundef nonnull align 8 dereferenceable(32) %call5)
          to label %invoke.cont6 unwind label %lpad

invoke.cont6:                                     ; preds = %invoke.cont4
  invoke void @_ZN11shared_occsclEP4exprR16shared_occs_mark(ptr noundef nonnull align 8 dereferenceable(40) %m_shared3, ptr noundef %call7, ptr noundef nonnull align 8 dereferenceable(144) %visited)
          to label %invoke.cont8 unwind label %lpad

invoke.cont8:                                     ; preds = %invoke.cont6
  br label %for.inc

for.inc:                                          ; preds = %invoke.cont8
  %6 = load i32, ptr %i, align 4
  %inc = add i32 %6, 1
  store i32 %inc, ptr %i, align 4
  br label %for.cond, !llvm.loop !11

lpad:                                             ; preds = %invoke.cont6, %invoke.cont4, %for.body, %for.cond, %entry
  %7 = landingpad { ptr, i32 }
          cleanup
  %8 = extractvalue { ptr, i32 } %7, 0
  store ptr %8, ptr %exn.slot, align 8
  %9 = extractvalue { ptr, i32 } %7, 1
  store i32 %9, ptr %ehselector.slot, align 4
  call void @_ZN16shared_occs_markD2Ev(ptr noundef nonnull align 8 dereferenceable(144) %visited) #3
  br label %eh.resume

for.end:                                          ; preds = %invoke.cont2
  call void @_ZN16shared_occs_markD2Ev(ptr noundef nonnull align 8 dereferenceable(144) %visited) #3
  ret void

eh.resume:                                        ; preds = %lpad
  %exn = load ptr, ptr %exn.slot, align 8
  %sel = load i32, ptr %ehselector.slot, align 4
  %lpad.val = insertvalue { ptr, i32 } poison, ptr %exn, 0
  %lpad.val9 = insertvalue { ptr, i32 } %lpad.val, i32 %sel, 1
  resume { ptr, i32 } %lpad.val9
}

; Function Attrs: mustprogress uwtable
define internal void @"_ZZN16propagate_values6reduceEvENK3$_0clEv"(ptr noundef nonnull align 8 dereferenceable(16) %this) #4 align 2 {
entry:
  %this.addr = alloca ptr, align 8
  %i = alloca i32, align 4
  store ptr %this, ptr %this.addr, align 8
  %this1 = load ptr, ptr %this.addr, align 8
  %0 = getelementptr inbounds %class.anon.49, ptr %this1, i32 0, i32 1
  %1 = load ptr, ptr %0, align 8
  %2 = getelementptr inbounds %class.anon.49, ptr %this1, i32 0, i32 0
  %3 = load ptr, ptr %2, align 8
  call void @"_ZZN16propagate_values6reduceEvENK3$_1clEv"(ptr noundef nonnull align 8 dereferenceable(8) %3)
  %m_subst = getelementptr inbounds %class.propagate_values, ptr %1, i32 0, i32 5
  call void @_ZN17expr_substitution5resetEv(ptr noundef nonnull align 8 dereferenceable(49) %m_subst)
  %m_rewriter = getelementptr inbounds %class.propagate_values, ptr %1, i32 0, i32 1
  call void @_ZN11th_rewriter5resetEv(ptr noundef nonnull align 8 dereferenceable(16) %m_rewriter)
  %m_rewriter2 = getelementptr inbounds %class.propagate_values, ptr %1, i32 0, i32 1
  %m_subst3 = getelementptr inbounds %class.propagate_values, ptr %1, i32 0, i32 5
  call void @_ZN11th_rewriter16set_substitutionEP17expr_substitution(ptr noundef nonnull align 8 dereferenceable(16) %m_rewriter2, ptr noundef %m_subst3)
  store i32 0, ptr %i, align 4
  br label %for.cond

for.cond:                                         ; preds = %for.inc, %entry
  %4 = load i32, ptr %i, align 4
  %call = call noundef i32 @_ZNK25dependent_expr_simplifier5qheadEv(ptr noundef nonnull align 8 dereferenceable(32) %1)
  %cmp = icmp ult i32 %4, %call
  br i1 %cmp, label %for.body, label %for.end

for.body:                                         ; preds = %for.cond
  %m_fmls = getelementptr inbounds %class.dependent_expr_simplifier, ptr %1, i32 0, i32 2
  %5 = load ptr, ptr %m_fmls, align 8
  %6 = load i32, ptr %i, align 4
  %vtable = load ptr, ptr %5, align 8
  %vfn = getelementptr inbounds ptr, ptr %vtable, i64 3
  %7 = load ptr, ptr %vfn, align 8
  %call4 = call noundef nonnull align 8 dereferenceable(32) ptr %7(ptr noundef nonnull align 8 dereferenceable(160) %5, i32 noundef %6)
  call void @_ZN16propagate_values7add_subERK14dependent_expr(ptr noundef nonnull align 8 dereferenceable(152) %1, ptr noundef nonnull align 8 dereferenceable(32) %call4)
  br label %for.inc

for.inc:                                          ; preds = %for.body
  %8 = load i32, ptr %i, align 4
  %inc = add i32 %8, 1
  store i32 %inc, ptr %i, align 4
  br label %for.cond, !llvm.loop !7

for.end:                                          ; preds = %for.cond
  ret void
}