; Function Attrs: mustprogress uwtable
define internal fastcc void @"_ZZN16propagate_values6reduceEvENK3$_0clEv"(ptr %this.0.val.0.val, ptr %this.8.val) unnamed_addr #3 align 2 personality ptr @__gxx_personality_v0 {
entry:
  %visited.i = alloca %class.shared_occs_mark, align 8
  call void @llvm.lifetime.start.p0(i64 144, ptr nonnull %visited.i)
  %m_initial_buffer.i.i.i.i = getelementptr inbounds i8, ptr %visited.i, i64 16
  store ptr %m_initial_buffer.i.i.i.i, ptr %visited.i, align 8
  %m_pos.i.i.i.i = getelementptr inbounds i8, ptr %visited.i, i64 8
  store i32 0, ptr %m_pos.i.i.i.i, align 8
  %m_capacity.i.i.i.i = getelementptr inbounds i8, ptr %visited.i, i64 12
  store i32 16, ptr %m_capacity.i.i.i.i, align 4
  %m_shared.i = getelementptr inbounds i8, ptr %this.0.val.0.val, i64 56
  invoke void @_ZN11shared_occs5resetEv(ptr noundef nonnull align 8 dereferenceable(40) %m_shared.i)
          to label %for.cond.preheader.i unwind label %lpad.loopexit.split-lp.i

for.cond.preheader.i:                             ; preds = %entry
  %m_fmls.i.i = getelementptr inbounds i8, ptr %this.0.val.0.val, i64 16
  br label %for.cond.i

for.cond.i:                                       ; preds = %for.inc.i, %for.cond.preheader.i
  %i.0.i = phi i32 [ %inc.i, %for.inc.i ], [ 0, %for.cond.preheader.i ]
  %0 = load ptr, ptr %m_fmls.i.i, align 8
  %vtable.i.i = load ptr, ptr %0, align 8
  %vfn.i.i = getelementptr inbounds i8, ptr %vtable.i.i, i64 16
  %1 = load ptr, ptr %vfn.i.i, align 8
  %call.i3.i = invoke noundef i32 %1(ptr noundef nonnull align 8 dereferenceable(160) %0)
          to label %invoke.cont2.i unwind label %lpad.loopexit.i

invoke.cont2.i:                                   ; preds = %for.cond.i
  %cmp.i = icmp ult i32 %i.0.i, %call.i3.i
  br i1 %cmp.i, label %for.body.i, label %for.end.i

for.body.i:                                       ; preds = %invoke.cont2.i
  %2 = load ptr, ptr %m_fmls.i.i, align 8
  %vtable.i = load ptr, ptr %2, align 8
  %vfn.i = getelementptr inbounds i8, ptr %vtable.i, i64 24
  %3 = load ptr, ptr %vfn.i, align 8
  %call5.i = invoke noundef nonnull align 8 dereferenceable(32) ptr %3(ptr noundef nonnull align 8 dereferenceable(160) %2, i32 noundef %i.0.i)
          to label %invoke.cont4.i unwind label %lpad.loopexit.i

invoke.cont4.i:                                   ; preds = %for.body.i
  %m_fml.i.i = getelementptr inbounds i8, ptr %call5.i, i64 8
  %4 = load ptr, ptr %m_fml.i.i, align 8
  invoke void @_ZN11shared_occsclEP4exprR16shared_occs_mark(ptr noundef nonnull align 8 dereferenceable(40) %m_shared.i, ptr noundef %4, ptr noundef nonnull align 8 dereferenceable(144) %visited.i)
          to label %for.inc.i unwind label %lpad.loopexit.i

for.inc.i:                                        ; preds = %invoke.cont4.i
  %inc.i = add nuw i32 %i.0.i, 1
  br label %for.cond.i, !llvm.loop !13

lpad.loopexit.i:                                  ; preds = %invoke.cont4.i, %for.body.i, %for.cond.i
  %lpad.loopexit1.i = landingpad { ptr, i32 }
          cleanup
  br label %lpad.i

lpad.loopexit.split-lp.i:                         ; preds = %entry
  %lpad.loopexit.split-lp2.i = landingpad { ptr, i32 }
          cleanup
  br label %lpad.i

lpad.i:                                           ; preds = %lpad.loopexit.split-lp.i, %lpad.loopexit.i
  %lpad.phi.i = phi { ptr, i32 } [ %lpad.loopexit1.i, %lpad.loopexit.i ], [ %lpad.loopexit.split-lp2.i, %lpad.loopexit.split-lp.i ]
  call void @_ZN16shared_occs_markD2Ev(ptr noundef nonnull align 8 dereferenceable(144) %visited.i) #12
  resume { ptr, i32 } %lpad.phi.i

for.end.i:                                        ; preds = %invoke.cont2.i
  %5 = load ptr, ptr %visited.i, align 8
  %6 = load i32, ptr %m_pos.i.i.i.i, align 8
  %idx.ext.i.i.i.i = zext i32 %6 to i64
  %add.ptr.i.i.i.i = getelementptr inbounds ptr, ptr %5, i64 %idx.ext.i.i.i.i
  %cmp.not4.i.i.i = icmp eq i32 %6, 0
  br i1 %cmp.not4.i.i.i, label %invoke.cont.i.i, label %for.body.i.i.i

for.body.i.i.i:                                   ; preds = %for.end.i, %for.body.i.i.i
  %__begin1.05.i.i.i = phi ptr [ %incdec.ptr.i.i.i, %for.body.i.i.i ], [ %5, %for.end.i ]
  %7 = load ptr, ptr %__begin1.05.i.i.i, align 8
  %m_mark_shared_occs.i.i.i.i.i = getelementptr inbounds i8, ptr %7, i64 4
  %bf.load.i.i.i.i.i = load i32, ptr %m_mark_shared_occs.i.i.i.i.i, align 4
  %bf.clear.i.i.i.i.i = and i32 %bf.load.i.i.i.i.i, -262145
  store i32 %bf.clear.i.i.i.i.i, ptr %m_mark_shared_occs.i.i.i.i.i, align 4
  %incdec.ptr.i.i.i = getelementptr inbounds i8, ptr %__begin1.05.i.i.i, i64 8
  %cmp.not.i.i.i = icmp eq ptr %incdec.ptr.i.i.i, %add.ptr.i.i.i.i
  br i1 %cmp.not.i.i.i, label %invoke.cont.loopexit.i.i, label %for.body.i.i.i

invoke.cont.loopexit.i.i:                         ; preds = %for.body.i.i.i
  %.pre.i.i = load ptr, ptr %visited.i, align 8
  br label %invoke.cont.i.i

invoke.cont.i.i:                                  ; preds = %invoke.cont.loopexit.i.i, %for.end.i
  %8 = phi ptr [ %.pre.i.i, %invoke.cont.loopexit.i.i ], [ %5, %for.end.i ]
  store i32 0, ptr %m_pos.i.i.i.i, align 8
  %cmp.not.i.i.i.i.i.i = icmp eq ptr %8, %m_initial_buffer.i.i.i.i
  %cmp.i.i.i.i.i.i.i = icmp eq ptr %8, null
  %or.cond.i.i.i.i.i.i = or i1 %cmp.not.i.i.i.i.i.i, %cmp.i.i.i.i.i.i.i
  br i1 %or.cond.i.i.i.i.i.i, label %"_ZZN16propagate_values6reduceEvENK3$_1clEv.exit", label %if.end.i.i.i.i.i.i.i

if.end.i.i.i.i.i.i.i:                             ; preds = %invoke.cont.i.i
  invoke void @_ZN6memory10deallocateEPv(ptr noundef nonnull %8)
          to label %"_ZZN16propagate_values6reduceEvENK3$_1clEv.exit" unwind label %terminate.lpad.i.i.i.i

terminate.lpad.i.i.i.i:                           ; preds = %if.end.i.i.i.i.i.i.i
  %9 = landingpad { ptr, i32 }
          catch ptr null
  %10 = extractvalue { ptr, i32 } %9, 0
  call void @__clang_call_terminate(ptr %10) #13
  unreachable

"_ZZN16propagate_values6reduceEvENK3$_1clEv.exit": ; preds = %invoke.cont.i.i, %if.end.i.i.i.i.i.i.i
  call void @llvm.lifetime.end.p0(i64 144, ptr nonnull %visited.i)
  %m_subst = getelementptr inbounds i8, ptr %this.8.val, i64 96
  call void @_ZN17expr_substitution5resetEv(ptr noundef nonnull align 8 dereferenceable(49) %m_subst)
  %m_rewriter = getelementptr inbounds i8, ptr %this.8.val, i64 32
  call void @_ZN11th_rewriter5resetEv(ptr noundef nonnull align 8 dereferenceable(16) %m_rewriter)
  call void @_ZN11th_rewriter16set_substitutionEP17expr_substitution(ptr noundef nonnull align 8 dereferenceable(16) %m_rewriter, ptr noundef nonnull %m_subst)
  %m_fmls.i = getelementptr inbounds i8, ptr %this.8.val, i64 16
  %11 = load ptr, ptr %m_fmls.i, align 8
  %m_qhead.i.i1 = getelementptr inbounds i8, ptr %11, i64 8
  %12 = load i32, ptr %m_qhead.i.i1, align 8
  %cmp2.not = icmp eq i32 %12, 0
  br i1 %cmp2.not, label %for.end, label %for.body

for.body:                                         ; preds = %"_ZZN16propagate_values6reduceEvENK3$_1clEv.exit", %for.body
  %13 = phi ptr [ %15, %for.body ], [ %11, %"_ZZN16propagate_values6reduceEvENK3$_1clEv.exit" ]
  %i.03 = phi i32 [ %inc, %for.body ], [ 0, %"_ZZN16propagate_values6reduceEvENK3$_1clEv.exit" ]
  %vtable = load ptr, ptr %13, align 8
  %vfn = getelementptr inbounds i8, ptr %vtable, i64 24
  %14 = load ptr, ptr %vfn, align 8
  %call4 = call noundef nonnull align 8 dereferenceable(32) ptr %14(ptr noundef nonnull align 8 dereferenceable(160) %13, i32 noundef %i.03)
  call void @_ZN16propagate_values7add_subERK14dependent_expr(ptr noundef nonnull align 8 dereferenceable(152) %this.8.val, ptr noundef nonnull align 8 dereferenceable(32) %call4)
  %inc = add nuw i32 %i.03, 1
  %15 = load ptr, ptr %m_fmls.i, align 8
  %m_qhead.i.i = getelementptr inbounds i8, ptr %15, i64 8
  %16 = load i32, ptr %m_qhead.i.i, align 8
  %cmp = icmp ult i32 %inc, %16
  br i1 %cmp, label %for.body, label %for.end, !llvm.loop !14

for.end:                                          ; preds = %for.body, %"_ZZN16propagate_values6reduceEvENK3$_1clEv.exit"
  ret void
}